target datalayout = "e-m:e-p270:32:32-p271:32:32-p272:64:64-i64:64-i128:128-f80:128-n8:16:32:64-S128"
target triple = "x86_64-pc-linux-gnu"

%struct.Str_Mux_t_ = type { i32, i32, i32, i32, [3 x %struct.Str_Edg_t_] }
%struct.Str_Edg_t_ = type { i32, i32, i32, i32 }

@.str.7 = private unnamed_addr constant [2 x i8] c"\0A\00", align 1
@.str.18 = private unnamed_addr constant [40 x i8] c"Trying node %d with path of length %d.\0A\00", align 1
@.str.19 = private unnamed_addr constant [22 x i8] c"%2d %2d -> %3d (%3d)\0A\00", align 1
@.str.20 = private unnamed_addr constant [15 x i8] c"Did not find!\0A\00", align 1
@.str.21 = private unnamed_addr constant [52 x i8] c"Node %6d (%3d %3d) : Checks = %d. Delay: %d -> %d.\0A\00", align 1

; Function Attrs: inlinehint nounwind uwtable
define internal i32 @Abc_Lit2Var(i32 noundef %0) #3 {
  %2 = alloca i32, align 4
  store i32 %0, ptr %2, align 4, !tbaa !39
  %3 = load i32, ptr %2, align 4, !tbaa !39
  %4 = ashr i32 %3, 1
  ret i32 %4
}

; Function Attrs: nounwind uwtable
define void @Str_MuxChangeUndo(ptr noundef %0, ptr noundef %1, i32 noundef %2, i32 noundef %3, ptr noundef %4) #0 {
  %6 = alloca ptr, align 8
  %7 = alloca ptr, align 8
  %8 = alloca i32, align 4
  %9 = alloca i32, align 4
  %10 = alloca ptr, align 8
  store ptr %0, ptr %6, align 8, !tbaa !153
  store ptr %1, ptr %7, align 8, !tbaa !109
  store i32 %2, ptr %8, align 4, !tbaa !39
  store i32 %3, ptr %9, align 4, !tbaa !39
  store ptr %4, ptr %10, align 8, !tbaa !153
  %11 = load ptr, ptr %6, align 8, !tbaa !153
  %12 = load ptr, ptr %7, align 8, !tbaa !109
  %13 = load i32, ptr %9, align 4, !tbaa !39
  %14 = sext i32 %13 to i64
  %15 = getelementptr inbounds i32, ptr %12, i64 %14
  %16 = load i32, ptr %15, align 4, !tbaa !39
  %17 = call i32 @Abc_Lit2Var(i32 noundef %16)
  %18 = sext i32 %17 to i64
  %19 = getelementptr inbounds %struct.Str_Mux_t_, ptr %11, i64 %18
  %20 = load ptr, ptr %10, align 8, !tbaa !153
  %21 = getelementptr inbounds %struct.Str_Mux_t_, ptr %20, i64 0
  call void @llvm.memcpy.p0.p0.i64(ptr align 4 %19, ptr align 4 %21, i64 64, i1 false), !tbaa.struct !167
  %22 = load ptr, ptr %6, align 8, !tbaa !153
  %23 = load ptr, ptr %7, align 8, !tbaa !109
  %24 = load i32, ptr %8, align 4, !tbaa !39
  %25 = add nsw i32 %24, 1
  %26 = sext i32 %25 to i64
  %27 = getelementptr inbounds i32, ptr %23, i64 %26
  %28 = load i32, ptr %27, align 4, !tbaa !39
  %29 = call i32 @Abc_Lit2Var(i32 noundef %28)
  %30 = sext i32 %29 to i64
  %31 = getelementptr inbounds %struct.Str_Mux_t_, ptr %22, i64 %30
  %32 = load ptr, ptr %10, align 8, !tbaa !153
  %33 = getelementptr inbounds %struct.Str_Mux_t_, ptr %32, i64 1
  call void @llvm.memcpy.p0.p0.i64(ptr align 4 %31, ptr align 4 %33, i64 64, i1 false), !tbaa.struct !167
  %34 = load ptr, ptr %6, align 8, !tbaa !153
  %35 = load ptr, ptr %7, align 8, !tbaa !109
  %36 = load i32, ptr %8, align 4, !tbaa !39
  %37 = sext i32 %36 to i64
  %38 = getelementptr inbounds i32, ptr %35, i64 %37
  %39 = load i32, ptr %38, align 4, !tbaa !39
  %40 = call i32 @Abc_Lit2Var(i32 noundef %39)
  %41 = sext i32 %40 to i64
  %42 = getelementptr inbounds %struct.Str_Mux_t_, ptr %34, i64 %41
  %43 = load ptr, ptr %10, align 8, !tbaa !153
  %44 = getelementptr inbounds %struct.Str_Mux_t_, ptr %43, i64 2
  call void @llvm.memcpy.p0.p0.i64(ptr align 4 %42, ptr align 4 %44, i64 64, i1 false), !tbaa.struct !167
  ret void
}

; Function Attrs: nounwind uwtable
define i32 @Str_MuxTryOnce(ptr noundef %0, ptr noundef %1, ptr noundef %2, ptr noundef %3, i32 noundef %4, ptr noundef %5, i32 noundef %6) #0 {
  %8 = alloca i32, align 4
  %9 = alloca ptr, align 8
  %10 = alloca ptr, align 8
  %11 = alloca ptr, align 8
  %12 = alloca ptr, align 8
  %13 = alloca i32, align 4
  %14 = alloca ptr, align 8
  %15 = alloca i32, align 4
  %16 = alloca [10000 x i32], align 16
  %17 = alloca [3 x %struct.Str_Mux_t_], align 16
  %18 = alloca i32, align 4
  %19 = alloca i32, align 4
  %20 = alloca i32, align 4
  %21 = alloca i32, align 4
  %22 = alloca i32, align 4
  %23 = alloca i32, align 4
  %24 = alloca i32, align 4
  %25 = alloca i32, align 4
  %26 = alloca i32, align 4
  %27 = alloca i32, align 4
  store ptr %0, ptr %9, align 8, !tbaa !3
  store ptr %1, ptr %10, align 8, !tbaa !8
  store ptr %2, ptr %11, align 8, !tbaa !153
  store ptr %3, ptr %12, align 8, !tbaa !153
  store i32 %4, ptr %13, align 4, !tbaa !39
  store ptr %5, ptr %14, align 8, !tbaa !61
  store i32 %6, ptr %15, align 4, !tbaa !39
  call void @llvm.lifetime.start.p0(i64 40000, ptr %16) #13
  call void @llvm.lifetime.start.p0(i64 192, ptr %17) #13
  call void @llvm.lifetime.start.p0(i64 4, ptr %18) #13
  call void @llvm.lifetime.start.p0(i64 4, ptr %19) #13
  %28 = load ptr, ptr %12, align 8, !tbaa !153
  %29 = load i32, ptr %13, align 4, !tbaa !39
  %30 = call i32 @Str_MuxDelayEdge_rec(ptr noundef %28, i32 noundef %29)
  store i32 %30, ptr %19, align 4, !tbaa !39
  call void @llvm.lifetime.start.p0(i64 4, ptr %20) #13
  %31 = load i32, ptr %19, align 4, !tbaa !39
  store i32 %31, ptr %20, align 4, !tbaa !39
  call void @llvm.lifetime.start.p0(i64 4, ptr %21) #13
  call void @llvm.lifetime.start.p0(i64 4, ptr %22) #13
  call void @llvm.lifetime.start.p0(i64 4, ptr %23) #13
  store i32 0, ptr %23, align 4, !tbaa !39
  call void @llvm.lifetime.start.p0(i64 4, ptr %24) #13
  store i32 -1, ptr %24, align 4, !tbaa !39
  call void @llvm.lifetime.start.p0(i64 4, ptr %25) #13
  store i32 0, ptr %25, align 4, !tbaa !39
  call void @llvm.lifetime.start.p0(i64 4, ptr %26) #13
  %32 = load ptr, ptr %12, align 8, !tbaa !153
  %33 = load i32, ptr %13, align 4, !tbaa !39
  %34 = getelementptr inbounds [10000 x i32], ptr %16, i64 0, i64 0
  %35 = call i32 @Str_MuxFindPathEdge_rec(ptr noundef %32, i32 noundef %33, ptr noundef %34, ptr noundef %23)
  store i32 %35, ptr %26, align 4, !tbaa !39
  %36 = load i32, ptr %26, align 4, !tbaa !39
  %37 = icmp eq i32 %36, 0
  br i1 %37, label %38, label %39

38:                                               ; preds = %7
  store i32 0, ptr %8, align 4
  store i32 1, ptr %27, align 4
  br label %147

39:                                               ; preds = %7
  %40 = load i32, ptr %15, align 4, !tbaa !39
  %41 = icmp ne i32 %40, 0
  br i1 %41, label %42, label %48

42:                                               ; preds = %39
  %43 = load ptr, ptr %12, align 8, !tbaa !153
  %44 = getelementptr inbounds nuw %struct.Str_Mux_t_, ptr %43, i32 0, i32 0
  %45 = load i32, ptr %44, align 4, !tbaa !159
  %46 = load i32, ptr %23, align 4, !tbaa !39
  %47 = call i32 (ptr, ...) @printf(ptr noundef @.str.18, i32 noundef %45, i32 noundef %46)
  br label %48

48:                                               ; preds = %42, %39
  store i32 0, ptr %21, align 4, !tbaa !39
  br label %49

49:                                               ; preds = %106, %48
  %50 = load i32, ptr %21, align 4, !tbaa !39
  %51 = load i32, ptr %23, align 4, !tbaa !39
  %52 = icmp slt i32 %50, %51
  br i1 %52, label %53, label %109

53:                                               ; preds = %49
  %54 = load i32, ptr %21, align 4, !tbaa !39
  %55 = add nsw i32 %54, 2
  store i32 %55, ptr %22, align 4, !tbaa !39
  br label %56

56:                                               ; preds = %102, %53
  %57 = load i32, ptr %22, align 4, !tbaa !39
  %58 = load i32, ptr %23, align 4, !tbaa !39
  %59 = icmp slt i32 %57, %58
  br i1 %59, label %60, label %105

60:                                               ; preds = %56
  %61 = load ptr, ptr %11, align 8, !tbaa !153
  %62 = getelementptr inbounds [10000 x i32], ptr %16, i64 0, i64 0
  %63 = load i32, ptr %21, align 4, !tbaa !39
  %64 = load i32, ptr %22, align 4, !tbaa !39
  %65 = getelementptr inbounds [3 x %struct.Str_Mux_t_], ptr %17, i64 0, i64 0
  call void @Str_MuxChangeOnce(ptr noundef %61, ptr noundef %62, i32 noundef %63, i32 noundef %64, ptr noundef %65, ptr noundef null, ptr noundef null)
  %66 = load ptr, ptr %12, align 8, !tbaa !153
  %67 = load i32, ptr %13, align 4, !tbaa !39
  %68 = call i32 @Str_MuxDelayEdge_rec(ptr noundef %66, i32 noundef %67)
  store i32 %68, ptr %18, align 4, !tbaa !39
  %69 = load ptr, ptr %11, align 8, !tbaa !153
  %70 = getelementptr inbounds [10000 x i32], ptr %16, i64 0, i64 0
  %71 = load i32, ptr %21, align 4, !tbaa !39
  %72 = load i32, ptr %22, align 4, !tbaa !39
  %73 = getelementptr inbounds [3 x %struct.Str_Mux_t_], ptr %17, i64 0, i64 0
  call void @Str_MuxChangeUndo(ptr noundef %69, ptr noundef %70, i32 noundef %71, i32 noundef %72, ptr noundef %73)
  %74 = load i32, ptr %19, align 4, !tbaa !39
  %75 = load i32, ptr %18, align 4, !tbaa !39
  %76 = icmp sgt i32 %74, %75
  br i1 %76, label %84, label %77

77:                                               ; preds = %60
  %78 = load i32, ptr %24, align 4, !tbaa !39
  %79 = icmp sgt i32 %78, 0
  br i1 %79, label %80, label %90

80:                                               ; preds = %77
  %81 = load i32, ptr %19, align 4, !tbaa !39
  %82 = load i32, ptr %18, align 4, !tbaa !39
  %83 = icmp eq i32 %81, %82
  br i1 %83, label %84, label %90

84:                                               ; preds = %80, %60
  %85 = load i32, ptr %18, align 4, !tbaa !39
  store i32 %85, ptr %19, align 4, !tbaa !39
  %86 = load i32, ptr %21, align 4, !tbaa !39
  %87 = shl i32 %86, 16
  %88 = load i32, ptr %22, align 4, !tbaa !39
  %89 = or i32 %87, %88
  store i32 %89, ptr %24, align 4, !tbaa !39
  br label %90

90:                                               ; preds = %84, %80, %77
  %91 = load i32, ptr %15, align 4, !tbaa !39
  %92 = icmp ne i32 %91, 0
  br i1 %92, label %93, label %99

93:                                               ; preds = %90
  %94 = load i32, ptr %21, align 4, !tbaa !39
  %95 = load i32, ptr %22, align 4, !tbaa !39
  %96 = load i32, ptr %18, align 4, !tbaa !39
  %97 = load i32, ptr %19, align 4, !tbaa !39
  %98 = call i32 (ptr, ...) @printf(ptr noundef @.str.19, i32 noundef %94, i32 noundef %95, i32 noundef %96, i32 noundef %97)
  br label %99

99:                                               ; preds = %93, %90
  %100 = load i32, ptr %25, align 4, !tbaa !39
  %101 = add nsw i32 %100, 1
  store i32 %101, ptr %25, align 4, !tbaa !39
  br label %102

102:                                              ; preds = %99
  %103 = load i32, ptr %22, align 4, !tbaa !39
  %104 = add nsw i32 %103, 1
  store i32 %104, ptr %22, align 4, !tbaa !39
  br label %56, !llvm.loop !172

105:                                              ; preds = %56
  br label %106

106:                                              ; preds = %105
  %107 = load i32, ptr %21, align 4, !tbaa !39
  %108 = add nsw i32 %107, 1
  store i32 %108, ptr %21, align 4, !tbaa !39
  br label %49, !llvm.loop !173

109:                                              ; preds = %49
  %110 = load i32, ptr %24, align 4, !tbaa !39
  %111 = icmp eq i32 %110, -1
  br i1 %111, label %112, label %118

112:                                              ; preds = %109
  %113 = load i32, ptr %15, align 4, !tbaa !39
  %114 = icmp ne i32 %113, 0
  br i1 %114, label %115, label %117

115:                                              ; preds = %112
  %116 = call i32 (ptr, ...) @printf(ptr noundef @.str.20)
  br label %117

117:                                              ; preds = %115, %112
  store i32 0, ptr %8, align 4
  store i32 1, ptr %27, align 4
  br label %147

118:                                              ; preds = %109
  %119 = load ptr, ptr %11, align 8, !tbaa !153
  %120 = getelementptr inbounds [10000 x i32], ptr %16, i64 0, i64 0
  %121 = load i32, ptr %24, align 4, !tbaa !39
  %122 = ashr i32 %121, 16
  %123 = load i32, ptr %24, align 4, !tbaa !39
  %124 = and i32 %123, 65535
  %125 = load ptr, ptr %9, align 8, !tbaa !3
  %126 = load ptr, ptr %14, align 8, !tbaa !61
  call void @Str_MuxChangeOnce(ptr noundef %119, ptr noundef %120, i32 noundef %122, i32 noundef %124, ptr noundef null, ptr noundef %125, ptr noundef %126)
  %127 = load i32, ptr %15, align 4, !tbaa !39
  %128 = icmp ne i32 %127, 0
  br i1 %128, label %129, label %141

129:                                              ; preds = %118
  %130 = load ptr, ptr %12, align 8, !tbaa !153
  %131 = getelementptr inbounds nuw %struct.Str_Mux_t_, ptr %130, i32 0, i32 0
  %132 = load i32, ptr %131, align 4, !tbaa !159
  %133 = load i32, ptr %24, align 4, !tbaa !39
  %134 = ashr i32 %133, 16
  %135 = load i32, ptr %24, align 4, !tbaa !39
  %136 = and i32 %135, 65535
  %137 = load i32, ptr %25, align 4, !tbaa !39
  %138 = load i32, ptr %20, align 4, !tbaa !39
  %139 = load i32, ptr %19, align 4, !tbaa !39
  %140 = call i32 (ptr, ...) @printf(ptr noundef @.str.21, i32 noundef %132, i32 noundef %134, i32 noundef %136, i32 noundef %137, i32 noundef %138, i32 noundef %139)
  br label %141

141:                                              ; preds = %129, %118
  %142 = load i32, ptr %15, align 4, !tbaa !39
  %143 = icmp ne i32 %142, 0
  br i1 %143, label %144, label %146

144:                                              ; preds = %141
  %145 = call i32 (ptr, ...) @printf(ptr noundef @.str.7)
  br label %146

146:                                              ; preds = %144, %141
  store i32 1, ptr %8, align 4
  store i32 1, ptr %27, align 4
  br label %147

147:                                              ; preds = %146, %117, %38
  call void @llvm.lifetime.end.p0(i64 4, ptr %26) #13
  call void @llvm.lifetime.end.p0(i64 4, ptr %25) #13
  call void @llvm.lifetime.end.p0(i64 4, ptr %24) #13
  call void @llvm.lifetime.end.p0(i64 4, ptr %23) #13
  call void @llvm.lifetime.end.p0(i64 4, ptr %22) #13
  call void @llvm.lifetime.end.p0(i64 4, ptr %21) #13
  call void @llvm.lifetime.end.p0(i64 4, ptr %20) #13
  call void @llvm.lifetime.end.p0(i64 4, ptr %19) #13
  call void @llvm.lifetime.end.p0(i64 4, ptr %18) #13
  call void @llvm.lifetime.end.p0(i64 192, ptr %17) #13
  call void @llvm.lifetime.end.p0(i64 40000, ptr %16) #13
  %148 = load i32, ptr %8, align 4
  ret i32 %148
}