; Function Attrs: nounwind uwtable
define range(i32 0, 2) i32 @Str_MuxTryOnce(ptr noundef %0, ptr readnone captures(none) %1, ptr noundef captures(none) %2, ptr noundef %3, i32 noundef %4, ptr noundef readonly captures(none) %5, i32 noundef %6) local_unnamed_addr #0 {
  %8 = alloca [10000 x i32], align 16
  %9 = alloca [3 x %struct.Str_Mux_t_], align 16
  %10 = alloca i32, align 4
  call void @llvm.lifetime.start.p0(i64 40000, ptr nonnull %8) #26
  call void @llvm.lifetime.start.p0(i64 192, ptr nonnull %9)
  %11 = tail call i32 @Str_MuxDelayEdge_rec(ptr noundef %3, i32 noundef %4)
  call void @llvm.lifetime.start.p0(i64 4, ptr nonnull %10) #26
  store i32 0, ptr %10, align 4, !tbaa !38
  %12 = call i32 @Str_MuxFindPathEdge_rec(ptr noundef %3, i32 noundef %4, ptr noundef nonnull %8, ptr noundef nonnull %10)
  %13 = icmp eq i32 %12, 0
  br i1 %13, label %.critedge, label %14

14:                                               ; preds = %7
  %.not = icmp eq i32 %6, 0
  %.pre = load i32, ptr %10, align 4, !tbaa !38
  br i1 %.not, label %18, label %15

15:                                               ; preds = %14
  %16 = load i32, ptr %3, align 4, !tbaa !139
  %17 = tail call i32 (ptr, ...) @printf(ptr noundef nonnull dereferenceable(1) @.str.18, i32 noundef %16, i32 noundef %.pre)
  br label %18

18:                                               ; preds = %15, %14
  %19 = icmp sgt i32 %.pre, 0
  br i1 %19, label %.lr.ph70, label %._crit_edge71.thread

.lr.ph70:                                         ; preds = %18
  %20 = getelementptr inbounds nuw i8, ptr %9, i64 64
  %21 = getelementptr inbounds nuw i8, ptr %9, i64 128
  %22 = getelementptr inbounds nuw i8, ptr %2, i64 12
  %23 = add nsw i32 %.pre, -2
  %24 = zext nneg i32 %.pre to i64
  %wide.trip.count84 = zext nneg i32 %.pre to i64
  %invariant.op = add nsw i64 %24, -2
  br label %25

25:                                               ; preds = %.lr.ph70, %._crit_edge
  %indvars.iv81 = phi i64 [ 0, %.lr.ph70 ], [ %indvars.iv.next82.pre-phi, %._crit_edge ]
  %indvars.iv77 = phi i32 [ %23, %.lr.ph70 ], [ %indvars.iv.next78, %._crit_edge ]
  %indvars.iv = phi i64 [ 2, %.lr.ph70 ], [ %indvars.iv.next, %._crit_edge ]
  %.05068 = phi i32 [ 0, %.lr.ph70 ], [ %.1.lcssa, %._crit_edge ]
  %.05167 = phi i32 [ -1, %.lr.ph70 ], [ %.152.lcssa, %._crit_edge ]
  %.05565 = phi i32 [ %11, %.lr.ph70 ], [ %.156.lcssa, %._crit_edge ]
  %26 = icmp slt i64 %indvars.iv81, %invariant.op
  br i1 %26, label %.lr.ph, label %.._crit_edge_crit_edge

.._crit_edge_crit_edge:                           ; preds = %25
  %.pre86 = add nuw nsw i64 %indvars.iv81, 1
  br label %._crit_edge

.lr.ph:                                           ; preds = %25
  %27 = getelementptr i32, ptr %8, i64 %indvars.iv81
  %28 = getelementptr i8, ptr %27, i64 4
  %29 = load i32, ptr %28, align 4, !tbaa !38
  %30 = ashr i32 %29, 1
  %31 = sext i32 %30 to i64
  %32 = getelementptr inbounds %struct.Str_Mux_t_, ptr %2, i64 %31
  %33 = load i32, ptr %27, align 4, !tbaa !38
  %34 = ashr i32 %33, 1
  %35 = sext i32 %34 to i64
  %36 = getelementptr inbounds %struct.Str_Mux_t_, ptr %2, i64 %35
  %37 = add nuw nsw i64 %indvars.iv81, 1
  %38 = and i32 %29, 1
  %39 = and i32 %33, 1
  %40 = getelementptr inbounds nuw i8, ptr %36, i64 16
  %41 = xor i32 %39, 1
  %42 = zext nneg i32 %41 to i64
  %43 = getelementptr inbounds nuw [3 x %struct.Str_Edg_t_], ptr %40, i64 0, i64 %42
  %44 = getelementptr inbounds nuw i8, ptr %43, i64 4
  %45 = getelementptr inbounds nuw i8, ptr %43, i64 8
  %46 = getelementptr inbounds nuw i8, ptr %43, i64 12
  %47 = zext nneg i32 %38 to i64
  %48 = getelementptr inbounds %struct.Str_Mux_t_, ptr %2, i64 %31, i32 4, i64 %47
  %49 = getelementptr inbounds nuw i8, ptr %48, i64 4
  %50 = getelementptr inbounds nuw i8, ptr %48, i64 8
  %51 = getelementptr inbounds nuw i8, ptr %48, i64 12
  %52 = getelementptr inbounds nuw i8, ptr %36, i64 56
  %53 = trunc nuw nsw i64 %indvars.iv81 to i32
  %54 = shl i32 %53, 16
  br label %._crit_edge.i

._crit_edge.i:                                    ; preds = %.lr.ph, %106
  %indvars.iv75 = phi i64 [ %indvars.iv, %.lr.ph ], [ %indvars.iv.next76, %106 ]
  %.15261 = phi i32 [ %.05167, %.lr.ph ], [ %.2, %106 ]
  %.15659 = phi i32 [ %.05565, %.lr.ph ], [ %.257, %106 ]
  %55 = getelementptr inbounds nuw i32, ptr %8, i64 %indvars.iv75
  %56 = load i32, ptr %55, align 4, !tbaa !38
  %57 = ashr i32 %56, 1
  %58 = sext i32 %57 to i64
  %59 = getelementptr inbounds %struct.Str_Mux_t_, ptr %2, i64 %58
  call void @llvm.memcpy.p0.p0.i64(ptr noundef nonnull align 16 dereferenceable(64) %9, ptr noundef nonnull align 4 dereferenceable(64) %59, i64 64, i1 false), !tbaa.struct !148
  call void @llvm.memcpy.p0.p0.i64(ptr noundef nonnull align 16 dereferenceable(64) %20, ptr noundef nonnull align 4 dereferenceable(64) %32, i64 64, i1 false), !tbaa.struct !148
  call void @llvm.memcpy.p0.p0.i64(ptr noundef nonnull align 16 dereferenceable(64) %21, ptr noundef nonnull align 4 dereferenceable(64) %36, i64 64, i1 false), !tbaa.struct !148
  %60 = and i32 %56, 1
  %61 = icmp samesign ult i64 %37, %indvars.iv75
  %62 = load i32, ptr %43, align 4, !tbaa !136
  %63 = load i32, ptr %44, align 4, !tbaa !141
  %64 = load i32, ptr %45, align 4, !tbaa !138
  %65 = load i32, ptr %46, align 4, !tbaa !145
  %66 = zext nneg i32 %60 to i64
  %67 = getelementptr inbounds %struct.Str_Mux_t_, ptr %2, i64 %58, i32 4, i64 %66
  %68 = load i32, ptr %67, align 4, !tbaa !136
  store i32 %68, ptr %43, align 4, !tbaa !136
  store i32 0, ptr %44, align 4, !tbaa !141
  %69 = load i32, ptr %36, align 4, !tbaa !139
  store i32 %69, ptr %67, align 4, !tbaa !136
  store i32 %62, ptr %48, align 4, !tbaa !136
  %70 = load i32, ptr %49, align 4, !tbaa !141
  %71 = xor i32 %70, %63
  store i32 %71, ptr %49, align 4, !tbaa !141
  store i32 %64, ptr %50, align 4, !tbaa !138
  store i32 %65, ptr %51, align 4, !tbaa !145
  br i1 %61, label %.lr.ph110.i, label %Str_MuxChangeOnce.exit

.lr.ph110.i:                                      ; preds = %._crit_edge.i
  %72 = load i32, ptr %22, align 4, !tbaa !142
  %.promoted.i = load i32, ptr %52, align 4, !tbaa !138
  br label %73

73:                                               ; preds = %73, %.lr.ph110.i
  %indvars.iv119.i = phi i64 [ %37, %.lr.ph110.i ], [ %indvars.iv.next120.i, %73 ]
  %74 = phi i32 [ %.promoted.i, %.lr.ph110.i ], [ %92, %73 ]
  %75 = getelementptr inbounds nuw i32, ptr %8, i64 %indvars.iv119.i
  %76 = load i32, ptr %75, align 4, !tbaa !38
  %77 = ashr i32 %76, 1
  %78 = sext i32 %77 to i64
  %79 = getelementptr inbounds %struct.Str_Mux_t_, ptr %2, i64 %78, i32 4, i64 2, i32 2
  %80 = load i32, ptr %79, align 4, !tbaa !138
  %81 = ashr i32 %74, 4
  %82 = ashr i32 %80, 4
  %83 = tail call noundef i32 @llvm.smax.i32(i32 %81, i32 %82)
  %.not.i.i = icmp slt i32 %81, %82
  %84 = and i32 %74, 15
  %85 = select i1 %.not.i.i, i32 1, i32 %84
  %.not13.i.i = icmp slt i32 %82, %81
  %86 = and i32 %80, 15
  %87 = select i1 %.not13.i.i, i32 1, i32 %86
  %88 = add nuw nsw i32 %85, %87
  %89 = shl nsw i32 %83, 4
  %90 = icmp sgt i32 %88, %72
  %91 = select i1 %90, i32 18, i32 %88
  %92 = add nsw i32 %91, %89
  store i32 %92, ptr %52, align 4, !tbaa !138
  %indvars.iv.next120.i = add nuw nsw i64 %indvars.iv119.i, 1
  %93 = and i64 %indvars.iv.next120.i, 4294967295
  %exitcond = icmp eq i64 %93, %indvars.iv75
  br i1 %exitcond, label %Str_MuxChangeOnce.exit, label %73, !llvm.loop !150

Str_MuxChangeOnce.exit:                           ; preds = %73, %._crit_edge.i
  %94 = tail call i32 @Str_MuxDelayEdge_rec(ptr noundef %3, i32 noundef %4)
  call void @llvm.memcpy.p0.p0.i64(ptr noundef nonnull align 4 dereferenceable(64) %59, ptr noundef nonnull readonly align 16 dereferenceable(64) %9, i64 64, i1 false), !tbaa.struct !148
  call void @llvm.memcpy.p0.p0.i64(ptr noundef nonnull align 4 dereferenceable(64) %32, ptr noundef nonnull readonly align 16 dereferenceable(64) %20, i64 64, i1 false), !tbaa.struct !148
  call void @llvm.memcpy.p0.p0.i64(ptr noundef nonnull align 4 dereferenceable(64) %36, ptr noundef nonnull readonly align 16 dereferenceable(64) %21, i64 64, i1 false), !tbaa.struct !148
  %95 = icmp sgt i32 %.15659, %94
  br i1 %95, label %99, label %96

96:                                               ; preds = %Str_MuxChangeOnce.exit
  %97 = icmp sgt i32 %.15261, 0
  %98 = icmp eq i32 %.15659, %94
  %or.cond = select i1 %97, i1 %98, i1 false
  br i1 %or.cond, label %99, label %102

99:                                               ; preds = %96, %Str_MuxChangeOnce.exit
  %100 = trunc nuw nsw i64 %indvars.iv75 to i32
  %101 = or i32 %54, %100
  br label %102

102:                                              ; preds = %99, %96
  %.257 = phi i32 [ %94, %99 ], [ %.15659, %96 ]
  %.2 = phi i32 [ %101, %99 ], [ %.15261, %96 ]
  br i1 %.not, label %106, label %103

103:                                              ; preds = %102
  %104 = trunc nuw nsw i64 %indvars.iv75 to i32
  %105 = tail call i32 (ptr, ...) @printf(ptr noundef nonnull dereferenceable(1) @.str.19, i32 noundef %53, i32 noundef %104, i32 noundef %94, i32 noundef %.257)
  br label %106

106:                                              ; preds = %103, %102
  %indvars.iv.next76 = add nuw nsw i64 %indvars.iv75, 1
  %exitcond80.not = icmp eq i64 %indvars.iv.next76, %wide.trip.count84
  br i1 %exitcond80.not, label %._crit_edge.loopexit, label %._crit_edge.i, !llvm.loop !153

._crit_edge.loopexit:                             ; preds = %106
  %107 = add i32 %.05068, %indvars.iv77
  br label %._crit_edge

._crit_edge:                                      ; preds = %.._crit_edge_crit_edge, %._crit_edge.loopexit
  %indvars.iv.next82.pre-phi = phi i64 [ %.pre86, %.._crit_edge_crit_edge ], [ %37, %._crit_edge.loopexit ]
  %.156.lcssa = phi i32 [ %.05565, %.._crit_edge_crit_edge ], [ %.257, %._crit_edge.loopexit ]
  %.152.lcssa = phi i32 [ %.05167, %.._crit_edge_crit_edge ], [ %.2, %._crit_edge.loopexit ]
  %.1.lcssa = phi i32 [ %.05068, %.._crit_edge_crit_edge ], [ %107, %._crit_edge.loopexit ]
  %indvars.iv.next = add nuw nsw i64 %indvars.iv, 1
  %indvars.iv.next78 = add i32 %indvars.iv77, -1
  %exitcond85.not = icmp eq i64 %indvars.iv.next82.pre-phi, %wide.trip.count84
  br i1 %exitcond85.not, label %._crit_edge71, label %25, !llvm.loop !154

._crit_edge71:                                    ; preds = %._crit_edge
  %108 = icmp eq i32 %.152.lcssa, -1
  br i1 %108, label %._crit_edge71.thread, label %110

._crit_edge71.thread:                             ; preds = %18, %._crit_edge71
  br i1 %.not, label %.critedge, label %109

109:                                              ; preds = %._crit_edge71.thread
  %puts = tail call i32 @puts(ptr nonnull dereferenceable(1) @str)
  br label %.critedge

110:                                              ; preds = %._crit_edge71
  %111 = ashr i32 %.152.lcssa, 16
  %112 = and i32 %.152.lcssa, 65535
  call void @Str_MuxChangeOnce(ptr noundef %2, ptr noundef nonnull %8, i32 noundef %111, i32 noundef %112, ptr noundef null, ptr noundef %0, ptr noundef %5)
  br i1 %.not, label %.critedge, label %113

113:                                              ; preds = %110
  %114 = load i32, ptr %3, align 4, !tbaa !139
  %115 = tail call i32 (ptr, ...) @printf(ptr noundef nonnull dereferenceable(1) @.str.21, i32 noundef %114, i32 noundef %111, i32 noundef %112, i32 noundef %.1.lcssa, i32 noundef %11, i32 noundef %.156.lcssa)
  %putchar = tail call i32 @putchar(i32 10)
  br label %.critedge

.critedge:                                        ; preds = %113, %110, %._crit_edge71.thread, %109, %7
  %.0 = phi i32 [ 0, %7 ], [ 0, %109 ], [ 0, %._crit_edge71.thread ], [ 1, %110 ], [ 1, %113 ]
  call void @llvm.lifetime.end.p0(i64 4, ptr nonnull %10) #26
  call void @llvm.lifetime.end.p0(i64 192, ptr nonnull %9)
  call void @llvm.lifetime.end.p0(i64 40000, ptr nonnull %8) #26
  ret i32 %.0
}